target datalayout = "e-m:e-p270:32:32-p271:32:32-p272:64:64-i64:64-i128:128-f80:128-n8:16:32:64-S128"
target triple = "x86_64-pc-linux-gnu"

%struct.AVFilterContext = type { ptr, ptr, ptr, ptr, ptr, i32, ptr, ptr, i32, ptr, ptr, i32, i32, ptr, ptr, ptr, ptr, i32, ptr, i32, i32 }
%struct.MaskedMergeContext = type { ptr, [4 x i32], [4 x i32], [4 x i32], i32, i32, i32, i32, i32, %struct.FFFrameSync, ptr }
%struct.FFFrameSync = type { ptr, ptr, i32, %struct.AVRational, i64, ptr, ptr, i32, i32, i8, i8, ptr, i32, i32, i32, i32 }
%struct.AVRational = type { i32, i32 }
%struct.AVFilterLink = type { ptr, ptr, ptr, ptr, i32, i32, i32, i32, %struct.AVRational, i32, i32, i32, %struct.AVChannelLayout, %struct.AVRational, ptr, i32, %struct.AVFilterFormatsConfig, %struct.AVFilterFormatsConfig }
%struct.AVChannelLayout = type { i32, i32, %union.anon.1, ptr }
%union.anon.1 = type { i64 }
%struct.AVFilterFormatsConfig = type { ptr, ptr, ptr, ptr, ptr }
%struct.ThreadData = type { ptr, ptr, ptr, ptr }
%struct.AVFrame = type { [8 x ptr], [8 x i32], ptr, i32, i32, i32, i32, i32, %struct.AVRational, i64, i64, %struct.AVRational, i32, ptr, i32, i32, [8 x ptr], ptr, i32, ptr, i32, i32, i32, i32, i32, i32, i32, i64, ptr, i32, ptr, ptr, i64, i64, i64, i64, ptr, %struct.AVChannelLayout, i64 }

; Function Attrs: nounwind uwtable
define internal i32 @process_frame(ptr noundef %0) #2 {
  %2 = alloca i32, align 4
  %3 = alloca ptr, align 8
  %4 = alloca ptr, align 8
  %5 = alloca ptr, align 8
  %6 = alloca ptr, align 8
  %7 = alloca ptr, align 8
  %8 = alloca ptr, align 8
  %9 = alloca ptr, align 8
  %10 = alloca ptr, align 8
  %11 = alloca %struct.ThreadData, align 8
  %12 = alloca i32, align 4
  %13 = alloca i32, align 4
  store ptr %0, ptr %3, align 8, !tbaa !89
  call void @llvm.lifetime.start.p0(i64 8, ptr %4) #10
  %14 = load ptr, ptr %3, align 8, !tbaa !89
  %15 = getelementptr inbounds nuw %struct.FFFrameSync, ptr %14, i32 0, i32 1
  %16 = load ptr, ptr %15, align 8, !tbaa !91
  store ptr %16, ptr %4, align 8, !tbaa !4
  call void @llvm.lifetime.start.p0(i64 8, ptr %5) #10
  %17 = load ptr, ptr %3, align 8, !tbaa !89
  %18 = getelementptr inbounds nuw %struct.FFFrameSync, ptr %17, i32 0, i32 6
  %19 = load ptr, ptr %18, align 8, !tbaa !92
  store ptr %19, ptr %5, align 8, !tbaa !22
  call void @llvm.lifetime.start.p0(i64 8, ptr %6) #10
  %20 = load ptr, ptr %4, align 8, !tbaa !4
  %21 = getelementptr inbounds nuw %struct.AVFilterContext, ptr %20, i32 0, i32 7
  %22 = load ptr, ptr %21, align 8, !tbaa !93
  %23 = getelementptr inbounds ptr, ptr %22, i64 0
  %24 = load ptr, ptr %23, align 8, !tbaa !24
  store ptr %24, ptr %6, align 8, !tbaa !24
  call void @llvm.lifetime.start.p0(i64 8, ptr %7) #10
  call void @llvm.lifetime.start.p0(i64 8, ptr %8) #10
  call void @llvm.lifetime.start.p0(i64 8, ptr %9) #10
  call void @llvm.lifetime.start.p0(i64 8, ptr %10) #10
  call void @llvm.lifetime.start.p0(i64 32, ptr %11) #10
  call void @llvm.lifetime.start.p0(i64 4, ptr %12) #10
  %25 = load ptr, ptr %5, align 8, !tbaa !22
  %26 = getelementptr inbounds nuw %struct.MaskedMergeContext, ptr %25, i32 0, i32 9
  %27 = call i32 @ff_framesync_get_frame(ptr noundef %26, i32 noundef 0, ptr noundef %8, i32 noundef 0)
  store i32 %27, ptr %12, align 4, !tbaa !44
  %28 = icmp slt i32 %27, 0
  br i1 %28, label %39, label %29

29:                                               ; preds = %1
  %30 = load ptr, ptr %5, align 8, !tbaa !22
  %31 = getelementptr inbounds nuw %struct.MaskedMergeContext, ptr %30, i32 0, i32 9
  %32 = call i32 @ff_framesync_get_frame(ptr noundef %31, i32 noundef 1, ptr noundef %9, i32 noundef 0)
  store i32 %32, ptr %12, align 4, !tbaa !44
  %33 = icmp slt i32 %32, 0
  br i1 %33, label %39, label %34

34:                                               ; preds = %29
  %35 = load ptr, ptr %5, align 8, !tbaa !22
  %36 = getelementptr inbounds nuw %struct.MaskedMergeContext, ptr %35, i32 0, i32 9
  %37 = call i32 @ff_framesync_get_frame(ptr noundef %36, i32 noundef 2, ptr noundef %10, i32 noundef 0)
  store i32 %37, ptr %12, align 4, !tbaa !44
  %38 = icmp slt i32 %37, 0
  br i1 %38, label %39, label %41

39:                                               ; preds = %34, %29, %1
  %40 = load i32, ptr %12, align 4, !tbaa !44
  store i32 %40, ptr %2, align 4
  store i32 1, ptr %13, align 4
  br label %114

41:                                               ; preds = %34
  %42 = load ptr, ptr %4, align 8, !tbaa !4
  %43 = getelementptr inbounds nuw %struct.AVFilterContext, ptr %42, i32 0, i32 17
  %44 = load i32, ptr %43, align 8, !tbaa !94
  %45 = icmp ne i32 %44, 0
  br i1 %45, label %46, label %53

46:                                               ; preds = %41
  %47 = load ptr, ptr %8, align 8, !tbaa !95
  %48 = call ptr @av_frame_clone(ptr noundef %47)
  store ptr %48, ptr %7, align 8, !tbaa !95
  %49 = load ptr, ptr %7, align 8, !tbaa !95
  %50 = icmp ne ptr %49, null
  br i1 %50, label %52, label %51

51:                                               ; preds = %46
  store i32 -12, ptr %2, align 4
  store i32 1, ptr %13, align 4
  br label %114

52:                                               ; preds = %46
  br label %96

53:                                               ; preds = %41
  %54 = load ptr, ptr %6, align 8, !tbaa !24
  %55 = load ptr, ptr %6, align 8, !tbaa !24
  %56 = getelementptr inbounds nuw %struct.AVFilterLink, ptr %55, i32 0, i32 6
  %57 = load i32, ptr %56, align 8, !tbaa !47
  %58 = load ptr, ptr %6, align 8, !tbaa !24
  %59 = getelementptr inbounds nuw %struct.AVFilterLink, ptr %58, i32 0, i32 7
  %60 = load i32, ptr %59, align 4, !tbaa !46
  %61 = call ptr @ff_get_video_buffer(ptr noundef %54, i32 noundef %57, i32 noundef %60)
  store ptr %61, ptr %7, align 8, !tbaa !95
  %62 = load ptr, ptr %7, align 8, !tbaa !95
  %63 = icmp ne ptr %62, null
  br i1 %63, label %65, label %64

64:                                               ; preds = %53
  store i32 -12, ptr %2, align 4
  store i32 1, ptr %13, align 4
  br label %114

65:                                               ; preds = %53
  %66 = load ptr, ptr %7, align 8, !tbaa !95
  %67 = load ptr, ptr %8, align 8, !tbaa !95
  %68 = call i32 @av_frame_copy_props(ptr noundef %66, ptr noundef %67)
  %69 = load ptr, ptr %7, align 8, !tbaa !95
  %70 = getelementptr inbounds nuw %struct.ThreadData, ptr %11, i32 0, i32 3
  store ptr %69, ptr %70, align 8, !tbaa !96
  %71 = load ptr, ptr %8, align 8, !tbaa !95
  %72 = getelementptr inbounds nuw %struct.ThreadData, ptr %11, i32 0, i32 0
  store ptr %71, ptr %72, align 8, !tbaa !98
  %73 = load ptr, ptr %9, align 8, !tbaa !95
  %74 = getelementptr inbounds nuw %struct.ThreadData, ptr %11, i32 0, i32 1
  store ptr %73, ptr %74, align 8, !tbaa !99
  %75 = load ptr, ptr %10, align 8, !tbaa !95
  %76 = getelementptr inbounds nuw %struct.ThreadData, ptr %11, i32 0, i32 2
  store ptr %75, ptr %76, align 8, !tbaa !100
  %77 = load ptr, ptr %4, align 8, !tbaa !4
  %78 = load ptr, ptr %5, align 8, !tbaa !22
  %79 = getelementptr inbounds nuw %struct.MaskedMergeContext, ptr %78, i32 0, i32 2
  %80 = getelementptr inbounds [4 x i32], ptr %79, i64 0, i64 2
  %81 = load i32, ptr %80, align 8, !tbaa !44
  %82 = load ptr, ptr %4, align 8, !tbaa !4
  %83 = call i32 @ff_filter_get_nb_threads(ptr noundef %82) #11
  %84 = icmp sgt i32 %81, %83
  br i1 %84, label %85, label %88

85:                                               ; preds = %65
  %86 = load ptr, ptr %4, align 8, !tbaa !4
  %87 = call i32 @ff_filter_get_nb_threads(ptr noundef %86) #11
  br label %93

88:                                               ; preds = %65
  %89 = load ptr, ptr %5, align 8, !tbaa !22
  %90 = getelementptr inbounds nuw %struct.MaskedMergeContext, ptr %89, i32 0, i32 2
  %91 = getelementptr inbounds [4 x i32], ptr %90, i64 0, i64 2
  %92 = load i32, ptr %91, align 8, !tbaa !44
  br label %93

93:                                               ; preds = %88, %85
  %94 = phi i32 [ %87, %85 ], [ %92, %88 ]
  %95 = call i32 @ff_filter_execute(ptr noundef %77, ptr noundef @filter_slice, ptr noundef %11, ptr noundef null, i32 noundef %94)
  br label %96

96:                                               ; preds = %93, %52
  %97 = load ptr, ptr %5, align 8, !tbaa !22
  %98 = getelementptr inbounds nuw %struct.MaskedMergeContext, ptr %97, i32 0, i32 9
  %99 = getelementptr inbounds nuw %struct.FFFrameSync, ptr %98, i32 0, i32 4
  %100 = load i64, ptr %99, align 8, !tbaa !101
  %101 = load ptr, ptr %5, align 8, !tbaa !22
  %102 = getelementptr inbounds nuw %struct.MaskedMergeContext, ptr %101, i32 0, i32 9
  %103 = getelementptr inbounds nuw %struct.FFFrameSync, ptr %102, i32 0, i32 3
  %104 = load ptr, ptr %6, align 8, !tbaa !24
  %105 = getelementptr inbounds nuw %struct.AVFilterLink, ptr %104, i32 0, i32 13
  %106 = load i64, ptr %103, align 4
  %107 = load i64, ptr %105, align 8
  %108 = call i64 @av_rescale_q(i64 noundef %100, i64 %106, i64 %107) #12
  %109 = load ptr, ptr %7, align 8, !tbaa !95
  %110 = getelementptr inbounds nuw %struct.AVFrame, ptr %109, i32 0, i32 9
  store i64 %108, ptr %110, align 8, !tbaa !102
  %111 = load ptr, ptr %6, align 8, !tbaa !24
  %112 = load ptr, ptr %7, align 8, !tbaa !95
  %113 = call i32 @ff_filter_frame(ptr noundef %111, ptr noundef %112)
  store i32 %113, ptr %2, align 4
  store i32 1, ptr %13, align 4
  br label %114

114:                                              ; preds = %96, %64, %51, %39
  call void @llvm.lifetime.end.p0(i64 4, ptr %12) #10
  call void @llvm.lifetime.end.p0(i64 32, ptr %11) #10
  call void @llvm.lifetime.end.p0(i64 8, ptr %10) #10
  call void @llvm.lifetime.end.p0(i64 8, ptr %9) #10
  call void @llvm.lifetime.end.p0(i64 8, ptr %8) #10
  call void @llvm.lifetime.end.p0(i64 8, ptr %7) #10
  call void @llvm.lifetime.end.p0(i64 8, ptr %6) #10
  call void @llvm.lifetime.end.p0(i64 8, ptr %5) #10
  call void @llvm.lifetime.end.p0(i64 8, ptr %4) #10
  %115 = load i32, ptr %2, align 4
  ret i32 %115
}